target datalayout = "e-m:e-p270:32:32-p271:32:32-p272:64:64-i64:64-i128:128-f80:128-n8:16:32:64-S128"
target triple = "x86_64-unknown-linux-gnu"

%"class.std::__cxx11::basic_string" = type { %"struct.std::__cxx11::basic_string<char>::_Alloc_hider", i64, %union.anon }
%"struct.std::__cxx11::basic_string<char>::_Alloc_hider" = type { ptr }
%union.anon = type { i64, [8 x i8] }
%"class.YAML::detail::node_data" = type { i8, %"struct.YAML::Mark", i32, %"class.std::__cxx11::basic_string", i32, %"class.std::__cxx11::basic_string", %"class.std::vector", i64, %"class.std::vector.3", %"class.std::__cxx11::list" }
%"struct.YAML::Mark" = type { i32, i32, i32 }
%"class.std::vector" = type { %"struct.std::_Vector_base" }
%"struct.std::_Vector_base" = type { %"struct.std::_Vector_base<YAML::detail::node *, std::allocator<YAML::detail::node *>>::_Vector_impl" }
%"struct.std::_Vector_base<YAML::detail::node *, std::allocator<YAML::detail::node *>>::_Vector_impl" = type { %"struct.std::_Vector_base<YAML::detail::node *, std::allocator<YAML::detail::node *>>::_Vector_impl_data" }
%"struct.std::_Vector_base<YAML::detail::node *, std::allocator<YAML::detail::node *>>::_Vector_impl_data" = type { ptr, ptr, ptr }
%"class.std::vector.3" = type { %"struct.std::_Vector_base.4" }
%"struct.std::_Vector_base.4" = type { %"struct.std::_Vector_base<std::pair<YAML::detail::node *, YAML::detail::node *>, std::allocator<std::pair<YAML::detail::node *, YAML::detail::node *>>>::_Vector_impl" }
%"struct.std::_Vector_base<std::pair<YAML::detail::node *, YAML::detail::node *>, std::allocator<std::pair<YAML::detail::node *, YAML::detail::node *>>>::_Vector_impl" = type { %"struct.std::_Vector_base<std::pair<YAML::detail::node *, YAML::detail::node *>, std::allocator<std::pair<YAML::detail::node *, YAML::detail::node *>>>::_Vector_impl_data" }
%"struct.std::_Vector_base<std::pair<YAML::detail::node *, YAML::detail::node *>, std::allocator<std::pair<YAML::detail::node *, YAML::detail::node *>>>::_Vector_impl_data" = type { ptr, ptr, ptr }
%"class.std::__cxx11::list" = type { %"class.std::__cxx11::_List_base" }
%"class.std::__cxx11::_List_base" = type { %"struct.std::__cxx11::_List_base<std::pair<YAML::detail::node *, YAML::detail::node *>, std::allocator<std::pair<YAML::detail::node *, YAML::detail::node *>>>::_List_impl" }
%"struct.std::__cxx11::_List_base<std::pair<YAML::detail::node *, YAML::detail::node *>, std::allocator<std::pair<YAML::detail::node *, YAML::detail::node *>>>::_List_impl" = type { %"struct.std::__detail::_List_node_header" }
%"struct.std::__detail::_List_node_header" = type { %"struct.std::__detail::_List_node_base", i64 }
%"struct.std::__detail::_List_node_base" = type { ptr, ptr }

; Function Attrs: mustprogress nounwind uwtable
define linkonce_odr void @_ZNSt8__detail17_List_node_header7_M_initEv(ptr noundef nonnull align 8 dereferenceable(24) %this) #0 comdat align 2 {
entry:
  %this.addr = alloca ptr, align 8
  store ptr %this, ptr %this.addr, align 8
  %this1 = load ptr, ptr %this.addr, align 8
  %_M_prev = getelementptr inbounds %"struct.std::__detail::_List_node_base", ptr %this1, i32 0, i32 1
  store ptr %this1, ptr %_M_prev, align 8
  %_M_next = getelementptr inbounds %"struct.std::__detail::_List_node_base", ptr %this1, i32 0, i32 0
  store ptr %this1, ptr %_M_next, align 8
  %_M_size = getelementptr inbounds %"struct.std::__detail::_List_node_header", ptr %this1, i32 0, i32 1
  store i64 0, ptr %_M_size, align 8
  ret void
}

; Function Attrs: mustprogress nounwind uwtable
define linkonce_odr void @_ZNSt15__new_allocatorISt10_List_nodeISt4pairIPN4YAML6detail4nodeES5_EEEC2Ev(ptr noundef nonnull align 1 dereferenceable(1) %this) unnamed_addr #0 comdat align 2 {
entry:
  %this.addr = alloca ptr, align 8
  store ptr %this, ptr %this.addr, align 8
  ret void
}

; Function Attrs: mustprogress nounwind uwtable
define linkonce_odr void @_ZNSt15__new_allocatorISt4pairIPN4YAML6detail4nodeES4_EEC2Ev(ptr noundef nonnull align 1 dereferenceable(1) %this) unnamed_addr #0 comdat align 2 {
entry:
  %this.addr = alloca ptr, align 8
  store ptr %this, ptr %this.addr, align 8
  ret void
}

; Function Attrs: mustprogress nounwind uwtable
define linkonce_odr void @_ZNSt15__new_allocatorIPN4YAML6detail4nodeEEC2Ev(ptr noundef nonnull align 1 dereferenceable(1) %this) unnamed_addr #0 comdat align 2 {
entry:
  %this.addr = alloca ptr, align 8
  store ptr %this, ptr %this.addr, align 8
  ret void
}

; Function Attrs: mustprogress nounwind uwtable
define linkonce_odr void @_ZNSt8__detail17_List_node_headerC2Ev(ptr noundef nonnull align 8 dereferenceable(24) %this) unnamed_addr #0 comdat align 2 {
entry:
  %this.addr = alloca ptr, align 8
  store ptr %this, ptr %this.addr, align 8
  %this1 = load ptr, ptr %this.addr, align 8
  call void @_ZNSt8__detail17_List_node_header7_M_initEv(ptr noundef nonnull align 8 dereferenceable(24) %this1) #1
  ret void
}

; Function Attrs: mustprogress nounwind uwtable
define linkonce_odr void @_ZNSaISt10_List_nodeISt4pairIPN4YAML6detail4nodeES4_EEEC2Ev(ptr noundef nonnull align 1 dereferenceable(1) %this) unnamed_addr #0 comdat align 2 {
entry:
  %this.addr = alloca ptr, align 8
  store ptr %this, ptr %this.addr, align 8
  %this1 = load ptr, ptr %this.addr, align 8
  call void @_ZNSt15__new_allocatorISt10_List_nodeISt4pairIPN4YAML6detail4nodeES5_EEEC2Ev(ptr noundef nonnull align 1 dereferenceable(1) %this1) #1
  ret void
}

; Function Attrs: mustprogress nounwind uwtable
define linkonce_odr void @_ZNSt12_Vector_baseISt4pairIPN4YAML6detail4nodeES4_ESaIS5_EE17_Vector_impl_dataC2Ev(ptr noundef nonnull align 8 dereferenceable(24) %this) unnamed_addr #0 comdat align 2 {
entry:
  %this.addr = alloca ptr, align 8
  store ptr %this, ptr %this.addr, align 8
  %this1 = load ptr, ptr %this.addr, align 8
  %_M_start = getelementptr inbounds %"struct.std::_Vector_base<std::pair<YAML::detail::node *, YAML::detail::node *>, std::allocator<std::pair<YAML::detail::node *, YAML::detail::node *>>>::_Vector_impl_data", ptr %this1, i32 0, i32 0
  store ptr null, ptr %_M_start, align 8
  %_M_finish = getelementptr inbounds %"struct.std::_Vector_base<std::pair<YAML::detail::node *, YAML::detail::node *>, std::allocator<std::pair<YAML::detail::node *, YAML::detail::node *>>>::_Vector_impl_data", ptr %this1, i32 0, i32 1
  store ptr null, ptr %_M_finish, align 8
  %_M_end_of_storage = getelementptr inbounds %"struct.std::_Vector_base<std::pair<YAML::detail::node *, YAML::detail::node *>, std::allocator<std::pair<YAML::detail::node *, YAML::detail::node *>>>::_Vector_impl_data", ptr %this1, i32 0, i32 2
  store ptr null, ptr %_M_end_of_storage, align 8
  ret void
}

; Function Attrs: mustprogress nounwind uwtable
define linkonce_odr void @_ZNSaISt4pairIPN4YAML6detail4nodeES3_EEC2Ev(ptr noundef nonnull align 1 dereferenceable(1) %this) unnamed_addr #0 comdat align 2 {
entry:
  %this.addr = alloca ptr, align 8
  store ptr %this, ptr %this.addr, align 8
  %this1 = load ptr, ptr %this.addr, align 8
  call void @_ZNSt15__new_allocatorISt4pairIPN4YAML6detail4nodeES4_EEC2Ev(ptr noundef nonnull align 1 dereferenceable(1) %this1) #1
  ret void
}

; Function Attrs: mustprogress nounwind uwtable
define linkonce_odr void @_ZNSt12_Vector_baseIPN4YAML6detail4nodeESaIS3_EE17_Vector_impl_dataC2Ev(ptr noundef nonnull align 8 dereferenceable(24) %this) unnamed_addr #0 comdat align 2 {
entry:
  %this.addr = alloca ptr, align 8
  store ptr %this, ptr %this.addr, align 8
  %this1 = load ptr, ptr %this.addr, align 8
  %_M_start = getelementptr inbounds %"struct.std::_Vector_base<YAML::detail::node *, std::allocator<YAML::detail::node *>>::_Vector_impl_data", ptr %this1, i32 0, i32 0
  store ptr null, ptr %_M_start, align 8
  %_M_finish = getelementptr inbounds %"struct.std::_Vector_base<YAML::detail::node *, std::allocator<YAML::detail::node *>>::_Vector_impl_data", ptr %this1, i32 0, i32 1
  store ptr null, ptr %_M_finish, align 8
  %_M_end_of_storage = getelementptr inbounds %"struct.std::_Vector_base<YAML::detail::node *, std::allocator<YAML::detail::node *>>::_Vector_impl_data", ptr %this1, i32 0, i32 2
  store ptr null, ptr %_M_end_of_storage, align 8
  ret void
}

; Function Attrs: mustprogress nounwind uwtable
define linkonce_odr void @_ZNSaIPN4YAML6detail4nodeEEC2Ev(ptr noundef nonnull align 1 dereferenceable(1) %this) unnamed_addr #0 comdat align 2 {
entry:
  %this.addr = alloca ptr, align 8
  store ptr %this, ptr %this.addr, align 8
  %this1 = load ptr, ptr %this.addr, align 8
  call void @_ZNSt15__new_allocatorIPN4YAML6detail4nodeEEC2Ev(ptr noundef nonnull align 1 dereferenceable(1) %this1) #1
  ret void
}

; Function Attrs: mustprogress nounwind uwtable
define linkonce_odr void @_ZNSt7__cxx1110_List_baseISt4pairIPN4YAML6detail4nodeES5_ESaIS6_EE10_List_implC2Ev(ptr noundef nonnull align 8 dereferenceable(24) %this) unnamed_addr #0 comdat align 2 {
entry:
  %this.addr = alloca ptr, align 8
  store ptr %this, ptr %this.addr, align 8
  %this1 = load ptr, ptr %this.addr, align 8
  call void @_ZNSaISt10_List_nodeISt4pairIPN4YAML6detail4nodeES4_EEEC2Ev(ptr noundef nonnull align 1 dereferenceable(1) %this1) #1
  %_M_node = getelementptr inbounds %"struct.std::__cxx11::_List_base<std::pair<YAML::detail::node *, YAML::detail::node *>, std::allocator<std::pair<YAML::detail::node *, YAML::detail::node *>>>::_List_impl", ptr %this1, i32 0, i32 0
  call void @_ZNSt8__detail17_List_node_headerC2Ev(ptr noundef nonnull align 8 dereferenceable(24) %_M_node) #1
  ret void
}

; Function Attrs: mustprogress nounwind uwtable
define linkonce_odr void @_ZNSt12_Vector_baseISt4pairIPN4YAML6detail4nodeES4_ESaIS5_EE12_Vector_implC2Ev(ptr noundef nonnull align 8 dereferenceable(24) %this) unnamed_addr #0 comdat align 2 {
entry:
  %this.addr = alloca ptr, align 8
  store ptr %this, ptr %this.addr, align 8
  %this1 = load ptr, ptr %this.addr, align 8
  call void @_ZNSaISt4pairIPN4YAML6detail4nodeES3_EEC2Ev(ptr noundef nonnull align 1 dereferenceable(1) %this1) #1
  call void @_ZNSt12_Vector_baseISt4pairIPN4YAML6detail4nodeES4_ESaIS5_EE17_Vector_impl_dataC2Ev(ptr noundef nonnull align 8 dereferenceable(24) %this1) #1
  ret void
}

; Function Attrs: mustprogress nounwind uwtable
define linkonce_odr void @_ZNSt12_Vector_baseIPN4YAML6detail4nodeESaIS3_EE12_Vector_implC2Ev(ptr noundef nonnull align 8 dereferenceable(24) %this) unnamed_addr #0 comdat align 2 {
entry:
  %this.addr = alloca ptr, align 8
  store ptr %this, ptr %this.addr, align 8
  %this1 = load ptr, ptr %this.addr, align 8
  call void @_ZNSaIPN4YAML6detail4nodeEEC2Ev(ptr noundef nonnull align 1 dereferenceable(1) %this1) #1
  call void @_ZNSt12_Vector_baseIPN4YAML6detail4nodeESaIS3_EE17_Vector_impl_dataC2Ev(ptr noundef nonnull align 8 dereferenceable(24) %this1) #1
  ret void
}

; Function Attrs: mustprogress nounwind uwtable
define linkonce_odr void @_ZNSt7__cxx1110_List_baseISt4pairIPN4YAML6detail4nodeES5_ESaIS6_EEC2Ev(ptr noundef nonnull align 8 dereferenceable(24) %this) unnamed_addr #0 comdat align 2 {
entry:
  %this.addr = alloca ptr, align 8
  store ptr %this, ptr %this.addr, align 8
  %this1 = load ptr, ptr %this.addr, align 8
  %_M_impl = getelementptr inbounds %"class.std::__cxx11::_List_base", ptr %this1, i32 0, i32 0
  call void @_ZNSt7__cxx1110_List_baseISt4pairIPN4YAML6detail4nodeES5_ESaIS6_EE10_List_implC2Ev(ptr noundef nonnull align 8 dereferenceable(24) %_M_impl) #1
  ret void
}

; Function Attrs: mustprogress nounwind uwtable
define linkonce_odr void @_ZNSt12_Vector_baseISt4pairIPN4YAML6detail4nodeES4_ESaIS5_EEC2Ev(ptr noundef nonnull align 8 dereferenceable(24) %this) unnamed_addr #0 comdat align 2 {
entry:
  %this.addr = alloca ptr, align 8
  store ptr %this, ptr %this.addr, align 8
  %this1 = load ptr, ptr %this.addr, align 8
  %_M_impl = getelementptr inbounds %"struct.std::_Vector_base.4", ptr %this1, i32 0, i32 0
  call void @_ZNSt12_Vector_baseISt4pairIPN4YAML6detail4nodeES4_ESaIS5_EE12_Vector_implC2Ev(ptr noundef nonnull align 8 dereferenceable(24) %_M_impl) #1
  ret void
}

; Function Attrs: mustprogress nounwind uwtable
define linkonce_odr void @_ZNSt12_Vector_baseIPN4YAML6detail4nodeESaIS3_EEC2Ev(ptr noundef nonnull align 8 dereferenceable(24) %this) unnamed_addr #0 comdat align 2 {
entry:
  %this.addr = alloca ptr, align 8
  store ptr %this, ptr %this.addr, align 8
  %this1 = load ptr, ptr %this.addr, align 8
  %_M_impl = getelementptr inbounds %"struct.std::_Vector_base", ptr %this1, i32 0, i32 0
  call void @_ZNSt12_Vector_baseIPN4YAML6detail4nodeESaIS3_EE12_Vector_implC2Ev(ptr noundef nonnull align 8 dereferenceable(24) %_M_impl) #1
  ret void
}

; Function Attrs: mustprogress nounwind uwtable
define linkonce_odr void @_ZN4YAML4MarkC2Eiii(ptr noundef nonnull align 4 dereferenceable(12) %this, i32 noundef %pos_, i32 noundef %line_, i32 noundef %column_) unnamed_addr #0 comdat align 2 {
entry:
  %this.addr = alloca ptr, align 8
  %pos_.addr = alloca i32, align 4
  %line_.addr = alloca i32, align 4
  %column_.addr = alloca i32, align 4
  store ptr %this, ptr %this.addr, align 8
  store i32 %pos_, ptr %pos_.addr, align 4
  store i32 %line_, ptr %line_.addr, align 4
  store i32 %column_, ptr %column_.addr, align 4
  %this1 = load ptr, ptr %this.addr, align 8
  %pos = getelementptr inbounds %"struct.YAML::Mark", ptr %this1, i32 0, i32 0
  %0 = load i32, ptr %pos_.addr, align 4
  store i32 %0, ptr %pos, align 4
  %line = getelementptr inbounds %"struct.YAML::Mark", ptr %this1, i32 0, i32 1
  %1 = load i32, ptr %line_.addr, align 4
  store i32 %1, ptr %line, align 4
  %column = getelementptr inbounds %"struct.YAML::Mark", ptr %this1, i32 0, i32 2
  %2 = load i32, ptr %column_.addr, align 4
  store i32 %2, ptr %column, align 4
  ret void
}

; Function Attrs: mustprogress nounwind uwtable
define linkonce_odr void @_ZNSt7__cxx114listISt4pairIPN4YAML6detail4nodeES5_ESaIS6_EEC2Ev(ptr noundef nonnull align 8 dereferenceable(24) %this) unnamed_addr #0 comdat align 2 {
entry:
  %this.addr = alloca ptr, align 8
  store ptr %this, ptr %this.addr, align 8
  %this1 = load ptr, ptr %this.addr, align 8
  call void @_ZNSt7__cxx1110_List_baseISt4pairIPN4YAML6detail4nodeES5_ESaIS6_EEC2Ev(ptr noundef nonnull align 8 dereferenceable(24) %this1) #1
  ret void
}

; Function Attrs: mustprogress nounwind uwtable
define linkonce_odr void @_ZNSt6vectorISt4pairIPN4YAML6detail4nodeES4_ESaIS5_EEC2Ev(ptr noundef nonnull align 8 dereferenceable(24) %this) unnamed_addr #0 comdat align 2 {
entry:
  %this.addr = alloca ptr, align 8
  store ptr %this, ptr %this.addr, align 8
  %this1 = load ptr, ptr %this.addr, align 8
  call void @_ZNSt12_Vector_baseISt4pairIPN4YAML6detail4nodeES4_ESaIS5_EEC2Ev(ptr noundef nonnull align 8 dereferenceable(24) %this1) #1
  ret void
}

; Function Attrs: mustprogress nounwind uwtable
define linkonce_odr void @_ZNSt6vectorIPN4YAML6detail4nodeESaIS3_EEC2Ev(ptr noundef nonnull align 8 dereferenceable(24) %this) unnamed_addr #0 comdat align 2 {
entry:
  %this.addr = alloca ptr, align 8
  store ptr %this, ptr %this.addr, align 8
  %this1 = load ptr, ptr %this.addr, align 8
  call void @_ZNSt12_Vector_baseIPN4YAML6detail4nodeESaIS3_EEC2Ev(ptr noundef nonnull align 8 dereferenceable(24) %this1) #1
  ret void
}

; Function Attrs: mustprogress uwtable
define linkonce_odr { i64, i32 } @_ZN4YAML4Mark9null_markEv() #3 comdat align 2 {
entry:
  %retval = alloca %"struct.YAML::Mark", align 4
  %retval.coerce = alloca { i64, i32 }, align 8
  call void @_ZN4YAML4MarkC2Eiii(ptr noundef nonnull align 4 dereferenceable(12) %retval, i32 noundef -1, i32 noundef -1, i32 noundef -1)
  call void @llvm.memcpy.p0.p0.i64(ptr align 8 %retval.coerce, ptr align 4 %retval, i64 12, i1 false)
  %0 = load { i64, i32 }, ptr %retval.coerce, align 8
  ret { i64, i32 } %0
}

; Function Attrs: mustprogress uwtable
define void @_ZN4YAML6detail9node_dataC2Ev(ptr noundef nonnull align 8 dereferenceable(176) %this) unnamed_addr #3 align 2 {
entry:
  %this.addr = alloca ptr, align 8
  %tmp.coerce = alloca { i64, i32 }, align 8
  store ptr %this, ptr %this.addr, align 8
  %this1 = load ptr, ptr %this.addr, align 8
  %m_isDefined = getelementptr inbounds %"class.YAML::detail::node_data", ptr %this1, i32 0, i32 0
  store i8 0, ptr %m_isDefined, align 8
  %m_mark = getelementptr inbounds %"class.YAML::detail::node_data", ptr %this1, i32 0, i32 1
  %call = call { i64, i32 } @_ZN4YAML4Mark9null_markEv()
  store { i64, i32 } %call, ptr %tmp.coerce, align 8
  call void @llvm.memcpy.p0.p0.i64(ptr align 4 %m_mark, ptr align 8 %tmp.coerce, i64 12, i1 false)
  %m_type = getelementptr inbounds %"class.YAML::detail::node_data", ptr %this1, i32 0, i32 2
  store i32 1, ptr %m_type, align 8
  %m_tag = getelementptr inbounds %"class.YAML::detail::node_data", ptr %this1, i32 0, i32 3
  call void @_ZNSt7__cxx1112basic_stringIcSt11char_traitsIcESaIcEEC1Ev(ptr noundef nonnull align 8 dereferenceable(32) %m_tag) #1
  %m_style = getelementptr inbounds %"class.YAML::detail::node_data", ptr %this1, i32 0, i32 4
  store i32 0, ptr %m_style, align 8
  %m_scalar = getelementptr inbounds %"class.YAML::detail::node_data", ptr %this1, i32 0, i32 5
  call void @_ZNSt7__cxx1112basic_stringIcSt11char_traitsIcESaIcEEC1Ev(ptr noundef nonnull align 8 dereferenceable(32) %m_scalar) #1
  %m_sequence = getelementptr inbounds %"class.YAML::detail::node_data", ptr %this1, i32 0, i32 6
  call void @llvm.memset.p0.i64(ptr align 8 %m_sequence, i8 0, i64 24, i1 false)
  call void @_ZNSt6vectorIPN4YAML6detail4nodeESaIS3_EEC2Ev(ptr noundef nonnull align 8 dereferenceable(24) %m_sequence) #1
  %m_seqSize = getelementptr inbounds %"class.YAML::detail::node_data", ptr %this1, i32 0, i32 7
  store i64 0, ptr %m_seqSize, align 8
  %m_map = getelementptr inbounds %"class.YAML::detail::node_data", ptr %this1, i32 0, i32 8
  call void @llvm.memset.p0.i64(ptr align 8 %m_map, i8 0, i64 24, i1 false)
  call void @_ZNSt6vectorISt4pairIPN4YAML6detail4nodeES4_ESaIS5_EEC2Ev(ptr noundef nonnull align 8 dereferenceable(24) %m_map) #1
  %m_undefinedPairs = getelementptr inbounds %"class.YAML::detail::node_data", ptr %this1, i32 0, i32 9
  call void @llvm.memset.p0.i64(ptr align 8 %m_undefinedPairs, i8 0, i64 24, i1 false)
  call void @_ZNSt7__cxx114listISt4pairIPN4YAML6detail4nodeES5_ESaIS6_EEC2Ev(ptr noundef nonnull align 8 dereferenceable(24) %m_undefinedPairs) #1
  ret void
}