; Function Attrs: mustprogress nounwind uwtable
define void @_ZN4YAML6detail9node_dataC2Ev(ptr noundef nonnull align 8 dereferenceable(176) %this) unnamed_addr #0 align 2 {
entry:
  store i8 0, ptr %this, align 8
  %m_mark = getelementptr inbounds i8, ptr %this, i64 4
  store i64 -1, ptr %m_mark, align 4
  %tmp.coerce.sroa.2.0.m_mark.sroa_idx = getelementptr inbounds i8, ptr %this, i64 12
  store i32 -1, ptr %tmp.coerce.sroa.2.0.m_mark.sroa_idx, align 4
  %m_type = getelementptr inbounds i8, ptr %this, i64 16
  store i32 1, ptr %m_type, align 8
  %m_tag = getelementptr inbounds i8, ptr %this, i64 24
  tail call void @_ZNSt7__cxx1112basic_stringIcSt11char_traitsIcESaIcEEC1Ev(ptr noundef nonnull align 8 dereferenceable(32) %m_tag) #18
  %m_style = getelementptr inbounds i8, ptr %this, i64 56
  store i32 0, ptr %m_style, align 8
  %m_scalar = getelementptr inbounds i8, ptr %this, i64 64
  tail call void @_ZNSt7__cxx1112basic_stringIcSt11char_traitsIcESaIcEEC1Ev(ptr noundef nonnull align 8 dereferenceable(32) %m_scalar) #18
  %m_sequence = getelementptr inbounds i8, ptr %this, i64 96
  %m_undefinedPairs = getelementptr inbounds i8, ptr %this, i64 152
  %_M_prev.i.i.i.i.i = getelementptr inbounds i8, ptr %this, i64 160
  tail call void @llvm.memset.p0.i64(ptr noundef nonnull align 8 dereferenceable(56) %m_sequence, i8 0, i64 56, i1 false)
  store ptr %m_undefinedPairs, ptr %_M_prev.i.i.i.i.i, align 8
  store ptr %m_undefinedPairs, ptr %m_undefinedPairs, align 8
  %_M_size.i.i.i.i.i = getelementptr inbounds i8, ptr %this, i64 168
  store i64 0, ptr %_M_size.i.i.i.i.i, align 8
  ret void
}